target datalayout = "e-m:e-p270:32:32-p271:32:32-p272:64:64-i64:64-i128:128-f80:128-n8:16:32:64-S128"
target triple = "x86_64-pc-linux-gnu"

%struct.Node = type { i32 }
%struct.Var = type { %struct.Expr, i32, i16, i32, i32, i32, ptr, i32, i32, i32, i16, i32 }
%struct.Expr = type { i32 }
%struct.PlaceHolderVar = type { %struct.Expr, ptr, ptr, ptr, i32, i32 }
%struct.List = type { i32, i32, i32, ptr, [0 x %union.ListCell] }
%union.ListCell = type { ptr }
%struct.ForEachState = type { ptr, i32 }
%struct.FuncExpr = type { %struct.Expr, i32, i32, i8, i8, i32, i32, i32, ptr, i32 }
%struct.RelabelType = type { %struct.Expr, ptr, i32, i32, i32, i32, i32 }
%struct.CoerceViaIO = type { %struct.Expr, ptr, i32, i32, i32, i32 }
%struct.ArrayCoerceExpr = type { %struct.Expr, ptr, ptr, i32, i32, i32, i32, i32 }
%struct.CoalesceExpr = type { %struct.Expr, i32, i32, ptr, i32 }

; Function Attrs: inlinehint nounwind uwtable
define internal ptr @list_nth_cell(ptr noundef %0, i32 noundef %1) #4 {
  %3 = alloca ptr, align 8
  %4 = alloca i32, align 4
  store ptr %0, ptr %3, align 8
  store i32 %1, ptr %4, align 4
  %5 = load ptr, ptr %3, align 8
  %6 = getelementptr inbounds nuw %struct.List, ptr %5, i32 0, i32 3
  %7 = load ptr, ptr %6, align 8
  %8 = load i32, ptr %4, align 4
  %9 = sext i32 %8 to i64
  %10 = getelementptr inbounds %union.ListCell, ptr %7, i64 %9
  ret ptr %10
}

; Function Attrs: nounwind uwtable
define internal zeroext i1 @is_standard_join_alias_expression(ptr noundef %0, ptr noundef %1) #0 {
  %3 = alloca i1, align 1
  %4 = alloca ptr, align 8
  %5 = alloca ptr, align 8
  %6 = alloca ptr, align 8
  %7 = alloca i32, align 4
  %8 = alloca ptr, align 8
  %9 = alloca ptr, align 8
  %10 = alloca ptr, align 8
  %11 = alloca ptr, align 8
  %12 = alloca ptr, align 8
  %13 = alloca %struct.ForEachState, align 8
  store ptr %0, ptr %4, align 8
  store ptr %1, ptr %5, align 8
  %14 = load ptr, ptr %4, align 8
  %15 = icmp eq ptr %14, null
  br i1 %15, label %16, label %17

16:                                               ; preds = %2
  store i1 false, ptr %3, align 1
  br label %162

17:                                               ; preds = %2
  %18 = load ptr, ptr %4, align 8
  %19 = getelementptr inbounds nuw %struct.Node, ptr %18, i32 0, i32 0
  %20 = load i32, ptr %19, align 4
  %21 = icmp eq i32 %20, 6
  br i1 %21, label %22, label %31

22:                                               ; preds = %17
  %23 = load ptr, ptr %4, align 8
  %24 = getelementptr inbounds nuw %struct.Var, ptr %23, i32 0, i32 7
  %25 = load i32, ptr %24, align 8
  %26 = load ptr, ptr %5, align 8
  %27 = getelementptr inbounds nuw %struct.Var, ptr %26, i32 0, i32 7
  %28 = load i32, ptr %27, align 8
  %29 = icmp eq i32 %25, %28
  br i1 %29, label %30, label %31

30:                                               ; preds = %22
  store i1 true, ptr %3, align 1
  br label %162

31:                                               ; preds = %22, %17
  %32 = load ptr, ptr %4, align 8
  %33 = getelementptr inbounds nuw %struct.Node, ptr %32, i32 0, i32 0
  %34 = load i32, ptr %33, align 4
  %35 = icmp eq i32 %34, 318
  br i1 %35, label %36, label %45

36:                                               ; preds = %31
  %37 = load ptr, ptr %4, align 8
  %38 = getelementptr inbounds nuw %struct.PlaceHolderVar, ptr %37, i32 0, i32 5
  %39 = load i32, ptr %38, align 4
  %40 = load ptr, ptr %5, align 8
  %41 = getelementptr inbounds nuw %struct.Var, ptr %40, i32 0, i32 7
  %42 = load i32, ptr %41, align 8
  %43 = icmp eq i32 %39, %42
  br i1 %43, label %44, label %45

44:                                               ; preds = %36
  store i1 true, ptr %3, align 1
  br label %162

45:                                               ; preds = %36, %31
  %46 = load ptr, ptr %4, align 8
  %47 = getelementptr inbounds nuw %struct.Node, ptr %46, i32 0, i32 0
  %48 = load i32, ptr %47, align 4
  %49 = icmp eq i32 %48, 15
  br i1 %49, label %50, label %71

50:                                               ; preds = %45
  call void @llvm.lifetime.start.p0(i64 8, ptr %6) #6
  %51 = load ptr, ptr %4, align 8
  store ptr %51, ptr %6, align 8
  %52 = load ptr, ptr %6, align 8
  %53 = getelementptr inbounds nuw %struct.FuncExpr, ptr %52, i32 0, i32 5
  %54 = load i32, ptr %53, align 8
  %55 = icmp ne i32 %54, 2
  br i1 %55, label %61, label %56

56:                                               ; preds = %50
  %57 = load ptr, ptr %6, align 8
  %58 = getelementptr inbounds nuw %struct.FuncExpr, ptr %57, i32 0, i32 8
  %59 = load ptr, ptr %58, align 8
  %60 = icmp eq ptr %59, null
  br i1 %60, label %61, label %62

61:                                               ; preds = %56, %50
  store i1 false, ptr %3, align 1
  store i32 1, ptr %7, align 4
  br label %70

62:                                               ; preds = %56
  %63 = load ptr, ptr %6, align 8
  %64 = getelementptr inbounds nuw %struct.FuncExpr, ptr %63, i32 0, i32 8
  %65 = load ptr, ptr %64, align 8
  %66 = call ptr @list_nth_cell(ptr noundef %65, i32 noundef 0)
  %67 = load ptr, ptr %66, align 8
  %68 = load ptr, ptr %5, align 8
  %69 = call zeroext i1 @is_standard_join_alias_expression(ptr noundef %67, ptr noundef %68)
  store i1 %69, ptr %3, align 1
  store i32 1, ptr %7, align 4
  br label %70

70:                                               ; preds = %62, %61
  call void @llvm.lifetime.end.p0(i64 8, ptr %6) #6
  br label %162

71:                                               ; preds = %45
  %72 = load ptr, ptr %4, align 8
  %73 = getelementptr inbounds nuw %struct.Node, ptr %72, i32 0, i32 0
  %74 = load i32, ptr %73, align 4
  %75 = icmp eq i32 %74, 27
  br i1 %75, label %76, label %83

76:                                               ; preds = %71
  call void @llvm.lifetime.start.p0(i64 8, ptr %8) #6
  %77 = load ptr, ptr %4, align 8
  store ptr %77, ptr %8, align 8
  %78 = load ptr, ptr %8, align 8
  %79 = getelementptr inbounds nuw %struct.RelabelType, ptr %78, i32 0, i32 1
  %80 = load ptr, ptr %79, align 8
  %81 = load ptr, ptr %5, align 8
  %82 = call zeroext i1 @is_standard_join_alias_expression(ptr noundef %80, ptr noundef %81)
  store i1 %82, ptr %3, align 1
  store i32 1, ptr %7, align 4
  call void @llvm.lifetime.end.p0(i64 8, ptr %8) #6
  br label %162

83:                                               ; preds = %71
  %84 = load ptr, ptr %4, align 8
  %85 = getelementptr inbounds nuw %struct.Node, ptr %84, i32 0, i32 0
  %86 = load i32, ptr %85, align 4
  %87 = icmp eq i32 %86, 28
  br i1 %87, label %88, label %95

88:                                               ; preds = %83
  call void @llvm.lifetime.start.p0(i64 8, ptr %9) #6
  %89 = load ptr, ptr %4, align 8
  store ptr %89, ptr %9, align 8
  %90 = load ptr, ptr %9, align 8
  %91 = getelementptr inbounds nuw %struct.CoerceViaIO, ptr %90, i32 0, i32 1
  %92 = load ptr, ptr %91, align 8
  %93 = load ptr, ptr %5, align 8
  %94 = call zeroext i1 @is_standard_join_alias_expression(ptr noundef %92, ptr noundef %93)
  store i1 %94, ptr %3, align 1
  store i32 1, ptr %7, align 4
  call void @llvm.lifetime.end.p0(i64 8, ptr %9) #6
  br label %162

95:                                               ; preds = %83
  %96 = load ptr, ptr %4, align 8
  %97 = getelementptr inbounds nuw %struct.Node, ptr %96, i32 0, i32 0
  %98 = load i32, ptr %97, align 4
  %99 = icmp eq i32 %98, 29
  br i1 %99, label %100, label %107

100:                                              ; preds = %95
  call void @llvm.lifetime.start.p0(i64 8, ptr %10) #6
  %101 = load ptr, ptr %4, align 8
  store ptr %101, ptr %10, align 8
  %102 = load ptr, ptr %10, align 8
  %103 = getelementptr inbounds nuw %struct.ArrayCoerceExpr, ptr %102, i32 0, i32 1
  %104 = load ptr, ptr %103, align 8
  %105 = load ptr, ptr %5, align 8
  %106 = call zeroext i1 @is_standard_join_alias_expression(ptr noundef %104, ptr noundef %105)
  store i1 %106, ptr %3, align 1
  store i32 1, ptr %7, align 4
  call void @llvm.lifetime.end.p0(i64 8, ptr %10) #6
  br label %162

107:                                              ; preds = %95
  %108 = load ptr, ptr %4, align 8
  %109 = getelementptr inbounds nuw %struct.Node, ptr %108, i32 0, i32 0
  %110 = load i32, ptr %109, align 4
  %111 = icmp eq i32 %110, 38
  br i1 %111, label %112, label %161

112:                                              ; preds = %107
  call void @llvm.lifetime.start.p0(i64 8, ptr %11) #6
  %113 = load ptr, ptr %4, align 8
  store ptr %113, ptr %11, align 8
  call void @llvm.lifetime.start.p0(i64 8, ptr %12) #6
  call void @llvm.lifetime.start.p0(i64 16, ptr %13) #6
  %114 = getelementptr inbounds nuw %struct.ForEachState, ptr %13, i32 0, i32 0
  %115 = load ptr, ptr %11, align 8
  %116 = getelementptr inbounds nuw %struct.CoalesceExpr, ptr %115, i32 0, i32 3
  %117 = load ptr, ptr %116, align 8
  store ptr %117, ptr %114, align 8
  %118 = getelementptr inbounds nuw %struct.ForEachState, ptr %13, i32 0, i32 1
  store i32 0, ptr %118, align 8
  %119 = getelementptr i8, ptr %13, i64 12
  call void @llvm.memset.p0.i64(ptr align 4 %119, i8 0, i64 4, i1 false)
  br label %120

120:                                              ; preds = %153, %112
  %121 = getelementptr inbounds nuw %struct.ForEachState, ptr %13, i32 0, i32 0
  %122 = load ptr, ptr %121, align 8
  %123 = icmp ne ptr %122, null
  br i1 %123, label %124, label %141

124:                                              ; preds = %120
  %125 = getelementptr inbounds nuw %struct.ForEachState, ptr %13, i32 0, i32 1
  %126 = load i32, ptr %125, align 8
  %127 = getelementptr inbounds nuw %struct.ForEachState, ptr %13, i32 0, i32 0
  %128 = load ptr, ptr %127, align 8
  %129 = getelementptr inbounds nuw %struct.List, ptr %128, i32 0, i32 1
  %130 = load i32, ptr %129, align 4
  %131 = icmp slt i32 %126, %130
  br i1 %131, label %132, label %141

132:                                              ; preds = %124
  %133 = getelementptr inbounds nuw %struct.ForEachState, ptr %13, i32 0, i32 0
  %134 = load ptr, ptr %133, align 8
  %135 = getelementptr inbounds nuw %struct.List, ptr %134, i32 0, i32 3
  %136 = load ptr, ptr %135, align 8
  %137 = getelementptr inbounds nuw %struct.ForEachState, ptr %13, i32 0, i32 1
  %138 = load i32, ptr %137, align 8
  %139 = sext i32 %138 to i64
  %140 = getelementptr inbounds %union.ListCell, ptr %136, i64 %139
  store ptr %140, ptr %12, align 8
  br label %142

141:                                              ; preds = %124, %120
  store ptr null, ptr %12, align 8
  br label %142

142:                                              ; preds = %141, %132
  %143 = phi i32 [ 1, %132 ], [ 0, %141 ]
  %144 = icmp ne i32 %143, 0
  br i1 %144, label %146, label %145

145:                                              ; preds = %142
  store i32 2, ptr %7, align 4
  br label %157

146:                                              ; preds = %142
  %147 = load ptr, ptr %12, align 8
  %148 = load ptr, ptr %147, align 8
  %149 = load ptr, ptr %5, align 8
  %150 = call zeroext i1 @is_standard_join_alias_expression(ptr noundef %148, ptr noundef %149)
  br i1 %150, label %152, label %151

151:                                              ; preds = %146
  store i1 false, ptr %3, align 1
  store i32 1, ptr %7, align 4
  br label %157

152:                                              ; preds = %146
  br label %153

153:                                              ; preds = %152
  %154 = getelementptr inbounds nuw %struct.ForEachState, ptr %13, i32 0, i32 1
  %155 = load i32, ptr %154, align 8
  %156 = add i32 %155, 1
  store i32 %156, ptr %154, align 8
  br label %120, !llvm.loop !9

157:                                              ; preds = %151, %145
  call void @llvm.lifetime.end.p0(i64 16, ptr %13) #6
  %158 = load i32, ptr %7, align 4
  switch i32 %158, label %160 [
    i32 2, label %159
  ]

159:                                              ; preds = %157
  store i1 true, ptr %3, align 1
  store i32 1, ptr %7, align 4
  br label %160

160:                                              ; preds = %159, %157
  call void @llvm.lifetime.end.p0(i64 8, ptr %12) #6
  call void @llvm.lifetime.end.p0(i64 8, ptr %11) #6
  br label %162

161:                                              ; preds = %107
  store i1 false, ptr %3, align 1
  br label %162

162:                                              ; preds = %161, %160, %100, %88, %76, %70, %44, %30, %16
  %163 = load i1, ptr %3, align 1
  ret i1 %163
}