; Function Attrs: nofree nosync nounwind memory(read, inaccessiblemem: none) uwtable
define internal fastcc noundef zeroext i1 @is_standard_join_alias_expression(ptr noundef readonly captures(address_is_null) %0, ptr noundef nonnull readonly captures(none) %1) unnamed_addr #4 {
  %3 = icmp eq ptr %0, null
  br i1 %3, label %.critedge, label %.lr.ph

.lr.ph:                                           ; preds = %2, %tailrecurse.backedge
  %.tr53 = phi ptr [ %.tr.be, %tailrecurse.backedge ], [ %0, %2 ]
  %4 = load i32, ptr %.tr53, align 4
  switch i32 %4, label %.critedge [
    i32 6, label %5
    i32 318, label %11
    i32 15, label %17
    i32 27, label %27
    i32 28, label %29
    i32 29, label %31
    i32 38, label %33
  ]

5:                                                ; preds = %.lr.ph
  %6 = getelementptr inbounds nuw i8, ptr %.tr53, i64 32
  %7 = load i32, ptr %6, align 8
  %8 = getelementptr inbounds nuw i8, ptr %1, i64 32
  %9 = load i32, ptr %8, align 8
  %10 = icmp eq i32 %7, %9
  br i1 %10, label %.critedge, label %.thread43

11:                                               ; preds = %.lr.ph
  %12 = getelementptr inbounds nuw i8, ptr %.tr53, i64 36
  %13 = load i32, ptr %12, align 4
  %14 = getelementptr inbounds nuw i8, ptr %1, i64 32
  %15 = load i32, ptr %14, align 8
  %16 = icmp eq i32 %13, %15
  br i1 %16, label %.critedge, label %.thread43

.thread43:                                        ; preds = %11, %5
  br label %.critedge

17:                                               ; preds = %.lr.ph
  %18 = getelementptr inbounds nuw i8, ptr %.tr53, i64 16
  %19 = load i32, ptr %18, align 8
  %.not42 = icmp eq i32 %19, 2
  br i1 %.not42, label %20, label %.critedge

20:                                               ; preds = %17
  %21 = getelementptr inbounds nuw i8, ptr %.tr53, i64 32
  %22 = load ptr, ptr %21, align 8
  %23 = icmp eq ptr %22, null
  br i1 %23, label %.critedge, label %24

24:                                               ; preds = %20
  %25 = getelementptr i8, ptr %22, i64 16
  %.val = load ptr, ptr %25, align 8
  br label %tailrecurse.backedge

tailrecurse.backedge:                             ; preds = %24, %27, %29, %31
  %.tr.be.in = phi ptr [ %.val, %24 ], [ %28, %27 ], [ %30, %29 ], [ %32, %31 ]
  %.tr.be = load ptr, ptr %.tr.be.in, align 8
  %26 = icmp eq ptr %.tr.be, null
  br i1 %26, label %.critedge, label %.lr.ph

27:                                               ; preds = %.lr.ph
  %28 = getelementptr inbounds nuw i8, ptr %.tr53, i64 8
  br label %tailrecurse.backedge

29:                                               ; preds = %.lr.ph
  %30 = getelementptr inbounds nuw i8, ptr %.tr53, i64 8
  br label %tailrecurse.backedge

31:                                               ; preds = %.lr.ph
  %32 = getelementptr inbounds nuw i8, ptr %.tr53, i64 8
  br label %tailrecurse.backedge

33:                                               ; preds = %.lr.ph
  %34 = getelementptr inbounds nuw i8, ptr %.tr53, i64 16
  %35 = load ptr, ptr %34, align 8
  %.not = icmp eq ptr %35, null
  br i1 %.not, label %.critedge, label %.lr.ph57

.lr.ph57:                                         ; preds = %33
  %36 = getelementptr inbounds nuw i8, ptr %35, i64 4
  %37 = load i32, ptr %36, align 4
  %38 = icmp sgt i32 %37, 0
  br i1 %38, label %.lr.ph65, label %.critedge

.lr.ph65:                                         ; preds = %.lr.ph57
  %39 = getelementptr inbounds nuw i8, ptr %35, i64 16
  %40 = load ptr, ptr %39, align 8
  %wide.trip.count = zext nneg i32 %37 to i64
  br label %41

41:                                               ; preds = %41, %.lr.ph65
  %indvars.iv = phi i64 [ 0, %.lr.ph65 ], [ %indvars.iv.next, %41 ]
  %42 = getelementptr inbounds nuw %union.ListCell, ptr %40, i64 %indvars.iv
  %43 = load ptr, ptr %42, align 8
  %44 = tail call fastcc zeroext i1 @is_standard_join_alias_expression(ptr noundef %43, ptr noundef %1)
  %indvars.iv.next = add nuw nsw i64 %indvars.iv, 1
  %exitcond.not = icmp ne i64 %indvars.iv.next, %wide.trip.count
  %or.cond.not = select i1 %44, i1 %exitcond.not, i1 false
  br i1 %or.cond.not, label %41, label %.critedge

.critedge:                                        ; preds = %tailrecurse.backedge, %17, %20, %.lr.ph, %41, %2, %33, %.lr.ph57, %.thread43, %11, %5
  %.0 = phi i1 [ true, %5 ], [ true, %11 ], [ false, %.thread43 ], [ true, %33 ], [ true, %.lr.ph57 ], [ false, %2 ], [ %44, %41 ], [ false, %.lr.ph ], [ false, %20 ], [ false, %17 ], [ false, %tailrecurse.backedge ]
  ret i1 %.0
}